target datalayout = "e-m:e-p270:32:32-p271:32:32-p272:64:64-i64:64-i128:128-f80:128-n8:16:32:64-S128"
target triple = "x86_64-pc-linux-gnu"

; Function Attrs: nounwind uwtable
define internal double @arrow_length_tee(double noundef %0, double noundef %1, double noundef %2, i32 noundef %3) #0 {
  %5 = alloca double, align 8
  %6 = alloca double, align 8
  %7 = alloca double, align 8
  %8 = alloca i32, align 4
  %9 = alloca double, align 8
  %10 = alloca double, align 8
  %11 = alloca double, align 8
  %12 = alloca double, align 8
  store double %0, ptr %5, align 8, !tbaa !53
  store double %1, ptr %6, align 8, !tbaa !53
  store double %2, ptr %7, align 8, !tbaa !53
  store i32 %3, ptr %8, align 4, !tbaa !10
  call void @llvm.lifetime.start.p0(i64 8, ptr %9) #9
  %13 = load double, ptr %5, align 8, !tbaa !53
  %14 = load double, ptr %6, align 8, !tbaa !53
  %15 = fmul double %13, %14
  %16 = fmul double %15, 1.000000e+01
  store double %16, ptr %9, align 8, !tbaa !53
  call void @llvm.lifetime.start.p0(i64 8, ptr %10) #9
  %17 = load double, ptr %9, align 8, !tbaa !53
  store double %17, ptr %10, align 8, !tbaa !53
  call void @llvm.lifetime.start.p0(i64 8, ptr %11) #9
  %18 = load double, ptr %7, align 8, !tbaa !53
  %19 = fdiv double %18, 2.000000e+00
  %20 = load double, ptr %9, align 8, !tbaa !53
  %21 = call double @llvm.fmuladd.f64(double -4.000000e-01, double %20, double %19)
  store double %21, ptr %11, align 8, !tbaa !53
  %22 = load double, ptr %11, align 8, !tbaa !53
  %23 = fcmp ogt double %22, 0.000000e+00
  br i1 %23, label %24, label %28

24:                                               ; preds = %4
  %25 = load double, ptr %11, align 8, !tbaa !53
  %26 = load double, ptr %10, align 8, !tbaa !53
  %27 = fadd double %26, %25
  store double %27, ptr %10, align 8, !tbaa !53
  br label %28

28:                                               ; preds = %24, %4
  call void @llvm.lifetime.start.p0(i64 8, ptr %12) #9
  %29 = load double, ptr %7, align 8, !tbaa !53
  %30 = fdiv double %29, 2.000000e+00
  %31 = load double, ptr %9, align 8, !tbaa !53
  %32 = call double @llvm.fmuladd.f64(double -2.000000e-01, double %31, double %30)
  store double %32, ptr %12, align 8, !tbaa !53
  %33 = load double, ptr %11, align 8, !tbaa !53
  %34 = fcmp ogt double %33, 0.000000e+00
  br i1 %34, label %35, label %39

35:                                               ; preds = %28
  %36 = load double, ptr %12, align 8, !tbaa !53
  %37 = load double, ptr %10, align 8, !tbaa !53
  %38 = fadd double %37, %36
  store double %38, ptr %10, align 8, !tbaa !53
  br label %39

39:                                               ; preds = %35, %28
  %40 = load double, ptr %10, align 8, !tbaa !53
  call void @llvm.lifetime.end.p0(i64 8, ptr %12) #9
  call void @llvm.lifetime.end.p0(i64 8, ptr %11) #9
  call void @llvm.lifetime.end.p0(i64 8, ptr %10) #9
  call void @llvm.lifetime.end.p0(i64 8, ptr %9) #9
  ret double %40
}